target datalayout = "e-m:e-p270:32:32-p271:32:32-p272:64:64-i64:64-i128:128-f80:128-n8:16:32:64-S128"
target triple = "x86_64-pc-linux-gnu"

@MyProc = dso_local global ptr null, align 8

; Function Attrs: nounwind uwtable
define dso_local void @ProcReleaseLocks(i1 noundef zeroext %0) #0 {
  %2 = alloca i8, align 1
  %3 = zext i1 %0 to i8
  store i8 %3, ptr %2, align 1
  %4 = load ptr, ptr @MyProc, align 8
  %5 = icmp ne ptr %4, null
  br i1 %5, label %7, label %6

6:                                                ; preds = %1
  br label %11

7:                                                ; preds = %1
  call void @LockErrorCleanup()
  %8 = load i8, ptr %2, align 1, !range !13, !noundef !14
  %9 = trunc i8 %8 to i1
  %10 = xor i1 %9, true
  call void @LockReleaseAll(i16 noundef zeroext 1, i1 noundef zeroext %10)
  call void @LockReleaseAll(i16 noundef zeroext 2, i1 noundef zeroext false)
  br label %11

11:                                               ; preds = %7, %6
  ret void
}