; Function Attrs: nounwind uwtable
define dso_local void @ProcReleaseLocks(i1 noundef zeroext %0) local_unnamed_addr #0 {
  %2 = load ptr, ptr @MyProc, align 8
  %.not = icmp eq ptr %2, null
  br i1 %.not, label %5, label %3

3:                                                ; preds = %1
  tail call void @LockErrorCleanup()
  %4 = xor i1 %0, true
  tail call void @LockReleaseAll(i16 noundef zeroext 1, i1 noundef zeroext %4) #14
  tail call void @LockReleaseAll(i16 noundef zeroext 2, i1 noundef zeroext false) #14
  br label %5

5:                                                ; preds = %1, %3
  ret void
}